target datalayout = "e-m:e-p270:32:32-p271:32:32-p272:64:64-i64:64-i128:128-f80:128-n8:16:32:64-S128"
target triple = "x86_64-pc-linux-gnu"

; Function Attrs: nounwind uwtable
define internal ptr @PyLzma_Malloc(ptr noundef %0, i64 noundef %1, i64 noundef %2) #0 {
  %4 = alloca ptr, align 8
  %5 = alloca ptr, align 8
  %6 = alloca i64, align 8
  %7 = alloca i64, align 8
  store ptr %0, ptr %5, align 8, !tbaa !8
  store i64 %1, ptr %6, align 8, !tbaa !26
  store i64 %2, ptr %7, align 8, !tbaa !26
  %8 = load i64, ptr %7, align 8, !tbaa !26
  %9 = icmp ne i64 %8, 0
  br i1 %9, label %10, label %16

10:                                               ; preds = %3
  %11 = load i64, ptr %6, align 8, !tbaa !26
  %12 = load i64, ptr %7, align 8, !tbaa !26
  %13 = udiv i64 9223372036854775807, %12
  %14 = icmp ugt i64 %11, %13
  br i1 %14, label %15, label %16

15:                                               ; preds = %10
  store ptr null, ptr %4, align 8
  br label %21

16:                                               ; preds = %10, %3
  %17 = load i64, ptr %6, align 8, !tbaa !26
  %18 = load i64, ptr %7, align 8, !tbaa !26
  %19 = mul i64 %17, %18
  %20 = call ptr @PyMem_RawMalloc(i64 noundef %19)
  store ptr %20, ptr %4, align 8
  br label %21

21:                                               ; preds = %16, %15
  %22 = load ptr, ptr %4, align 8
  ret ptr %22
}