; Function Attrs: nounwind uwtable
define internal ptr @PyLzma_Malloc(ptr readnone captures(none) %0, i64 noundef %1, i64 noundef %2) #0 {
  %.not = icmp eq i64 %2, 0
  br i1 %.not, label %7, label %4

4:                                                ; preds = %3
  %5 = udiv i64 9223372036854775807, %2
  %6 = icmp ugt i64 %1, %5
  br i1 %6, label %10, label %7

7:                                                ; preds = %4, %3
  %8 = mul i64 %2, %1
  %9 = tail call ptr @PyMem_RawMalloc(i64 noundef %8) #10
  br label %10

10:                                               ; preds = %4, %7
  %.0 = phi ptr [ %9, %7 ], [ null, %4 ]
  ret ptr %.0
}